; Function Attrs: mustprogress nofree norecurse nosync nounwind memory(readwrite, inaccessiblemem: none) uwtable
define hidden void @_ZN2pb6solver11reset_marksEj(ptr nocapture noundef nonnull align 8 dereferenceable(1049) %this, i32 noundef %idx) local_unnamed_addr #12 align 2 {
entry:
  %m_num_marks = getelementptr inbounds i8, ptr %this, i64 784
  %0 = load i32, ptr %m_num_marks, align 8
  %cmp.not8 = icmp eq i32 %0, 0
  br i1 %cmp.not8, label %while.end, label %while.body.lr.ph

while.body.lr.ph:                                 ; preds = %entry
  %m_solver.i = getelementptr inbounds i8, ptr %this, i64 24
  br label %while.body

while.body:                                       ; preds = %while.body.lr.ph, %if.end
  %1 = phi i32 [ %0, %while.body.lr.ph ], [ %9, %if.end ]
  %idx.addr.09 = phi i32 [ %idx, %while.body.lr.ph ], [ %dec8, %if.end ]
  %2 = load ptr, ptr %m_solver.i, align 8
  %m_trail = getelementptr inbounds i8, ptr %2, i64 3928
  %3 = load ptr, ptr %m_trail, align 8
  %idxprom.i = zext i32 %idx.addr.09 to i64
  %arrayidx.i = getelementptr inbounds %"class.sat::literal", ptr %3, i64 %idxprom.i
  %4 = load i32, ptr %arrayidx.i, align 4
  %shr.i = lshr i32 %4, 1
  %m_mark.i = getelementptr inbounds i8, ptr %2, i64 3464
  %5 = load ptr, ptr %m_mark.i, align 8
  %idxprom.i.i = zext nneg i32 %shr.i to i64
  %arrayidx.i.i = getelementptr inbounds i8, ptr %5, i64 %idxprom.i.i
  %6 = load i8, ptr %arrayidx.i.i, align 1
  %7 = and i8 %6, 1
  %tobool.i.not = icmp eq i8 %7, 0
  br i1 %tobool.i.not, label %if.end, label %if.then

if.then:                                          ; preds = %while.body
  store i8 0, ptr %arrayidx.i.i, align 1
  %8 = load i32, ptr %m_num_marks, align 8
  %dec = add i32 %8, -1
  store i32 %dec, ptr %m_num_marks, align 8
  br label %if.end

if.end:                                           ; preds = %if.then, %while.body
  %9 = phi i32 [ %dec, %if.then ], [ %1, %while.body ]
  %dec8 = add i32 %idx.addr.09, -1
  %cmp.not = icmp eq i32 %9, 0
  br i1 %cmp.not, label %while.end, label %while.body, !llvm.loop !82

while.end:                                        ; preds = %if.end, %entry
  ret void
}